target datalayout = "e-m:e-p270:32:32-p271:32:32-p272:64:64-i64:64-i128:128-f80:128-n8:16:32:64-S128"
target triple = "x86_64-pc-linux-gnu"

%class.symbol = type { ptr }
%"class.datalog::tr_infrastructure<datalog::relation_traits>::plugin_object" = type { ptr, i32, %class.symbol, ptr }
%class.vector.62 = type { ptr }
%"class.datalog::tr_infrastructure<datalog::relation_traits>::base_ancestor" = type <{ ptr, ptr, %"class.datalog::relation_signature", i32, [4 x i8] }>
%"class.datalog::relation_signature" = type { %"class.datalog::tr_infrastructure<datalog::relation_traits>::signature_base" }
%"class.datalog::tr_infrastructure<datalog::relation_traits>::signature_base" = type { %class.ptr_vector.61 }
%class.ptr_vector.61 = type { %class.vector.62 }
%"class.datalog::bound_relation_plugin::union_fn_i" = type <{ %"class.datalog::tr_infrastructure<datalog::relation_traits>::union_fn", i8, [7 x i8] }>
%"class.datalog::tr_infrastructure<datalog::relation_traits>::union_fn" = type { %"class.datalog::tr_infrastructure<datalog::relation_traits>::base_fn" }
%"class.datalog::tr_infrastructure<datalog::relation_traits>::base_fn" = type { ptr }
%"class.datalog::bound_relation_plugin::union_fn" = type <{ %"class.datalog::tr_infrastructure<datalog::relation_traits>::union_fn", i8, [7 x i8] }>

@.str = private unnamed_addr constant [18 x i8] c"interval_relation\00", align 1

; Function Attrs: mustprogress nounwind uwtable
define linkonce_odr hidden void @_ZN7datalog17tr_infrastructureINS_15relation_traitsEE7base_fnC2Ev(ptr noundef nonnull align 8 dereferenceable(8) %0) unnamed_addr #7 comdat align 2 {
  %2 = alloca ptr, align 8
  store ptr %0, ptr %2, align 8, !tbaa !273
  %3 = load ptr, ptr %2, align 8
  store ptr getelementptr inbounds inrange(-16, 16) ({ [4 x ptr] }, ptr @_ZTVN7datalog17tr_infrastructureINS_15relation_traitsEE7base_fnE, i32 0, i32 0, i32 2), ptr %3, align 8, !tbaa !10
  ret void
}

; Function Attrs: inlinehint mustprogress nounwind uwtable
define linkonce_odr hidden void @_ZN7datalog17tr_infrastructureINS_15relation_traitsEE8union_fnC2Ev(ptr noundef nonnull align 8 dereferenceable(8) %0) unnamed_addr #10 comdat align 2 {
  %2 = alloca ptr, align 8
  store ptr %0, ptr %2, align 8, !tbaa !364
  %3 = load ptr, ptr %2, align 8
  call void @_ZN7datalog17tr_infrastructureINS_15relation_traitsEE7base_fnC2Ev(ptr noundef nonnull align 8 dereferenceable(8) %3) #3
  store ptr getelementptr inbounds inrange(-16, 24) ({ [5 x ptr] }, ptr @_ZTVN7datalog17tr_infrastructureINS_15relation_traitsEE8union_fnE, i32 0, i32 0, i32 2), ptr %3, align 8, !tbaa !10
  ret void
}

; Function Attrs: mustprogress nounwind uwtable
define linkonce_odr hidden noundef zeroext i1 @_ZeqRK6symbolS1_(ptr noundef nonnull align 8 dereferenceable(8) %0, ptr noundef nonnull align 8 dereferenceable(8) %1) #7 comdat {
  %3 = alloca ptr, align 8
  %4 = alloca ptr, align 8
  store ptr %0, ptr %3, align 8, !tbaa !14
  store ptr %1, ptr %4, align 8, !tbaa !14
  %5 = load ptr, ptr %3, align 8, !tbaa !14
  %6 = getelementptr inbounds nuw %class.symbol, ptr %5, i32 0, i32 0
  %7 = load ptr, ptr %6, align 8, !tbaa !68
  %8 = load ptr, ptr %4, align 8, !tbaa !14
  %9 = getelementptr inbounds nuw %class.symbol, ptr %8, i32 0, i32 0
  %10 = load ptr, ptr %9, align 8, !tbaa !68
  %11 = icmp eq ptr %7, %10
  ret i1 %11
}

; Function Attrs: mustprogress nounwind uwtable
define linkonce_odr hidden noundef nonnull align 8 dereferenceable(8) ptr @_ZNK7datalog17tr_infrastructureINS_15relation_traitsEE13plugin_object8get_nameEv(ptr noundef nonnull align 8 dereferenceable(32) %0) #7 comdat align 2 {
  %2 = alloca ptr, align 8
  store ptr %0, ptr %2, align 8, !tbaa !24
  %3 = load ptr, ptr %2, align 8
  %4 = getelementptr inbounds nuw %"class.datalog::tr_infrastructure<datalog::relation_traits>::plugin_object", ptr %3, i32 0, i32 2
  ret ptr %4
}

; Function Attrs: mustprogress nounwind uwtable
define linkonce_odr hidden noundef nonnull align 8 dereferenceable(36) ptr @_ZNK7datalog17tr_infrastructureINS_15relation_traitsEE13base_ancestor10get_pluginEv(ptr noundef nonnull align 8 dereferenceable(28) %0) #7 comdat align 2 {
  %2 = alloca ptr, align 8
  store ptr %0, ptr %2, align 8, !tbaa !69
  %3 = load ptr, ptr %2, align 8
  %4 = getelementptr inbounds nuw %"class.datalog::tr_infrastructure<datalog::relation_traits>::base_ancestor", ptr %3, i32 0, i32 1
  %5 = load ptr, ptr %4, align 8, !tbaa !71
  ret ptr %5
}

; Function Attrs: mustprogress nounwind uwtable
define linkonce_odr hidden void @_ZN7datalog21bound_relation_plugin8union_fnC2Eb(ptr noundef nonnull align 8 dereferenceable(9) %0, i1 noundef zeroext %1) unnamed_addr #7 comdat align 2 {
  %3 = alloca ptr, align 8
  %4 = alloca i8, align 1
  store ptr %0, ptr %3, align 8, !tbaa !94
  %5 = zext i1 %1 to i8
  store i8 %5, ptr %4, align 1, !tbaa !87
  %6 = load ptr, ptr %3, align 8
  call void @_ZN7datalog17tr_infrastructureINS_15relation_traitsEE8union_fnC2Ev(ptr noundef nonnull align 8 dereferenceable(8) %6) #3
  store ptr getelementptr inbounds inrange(-16, 24) ({ [5 x ptr] }, ptr @_ZTVN7datalog21bound_relation_plugin8union_fnE, i32 0, i32 0, i32 2), ptr %6, align 8, !tbaa !10
  %7 = getelementptr inbounds nuw %"class.datalog::bound_relation_plugin::union_fn", ptr %6, i32 0, i32 1
  %8 = load i8, ptr %4, align 1, !tbaa !87, !range !88, !noundef !89
  %9 = trunc i8 %8 to i1
  %10 = zext i1 %9 to i8
  store i8 %10, ptr %7, align 8, !tbaa !96
  ret void
}

; Function Attrs: mustprogress nounwind uwtable
define linkonce_odr hidden void @_ZN7datalog21bound_relation_plugin10union_fn_iC2Eb(ptr noundef nonnull align 8 dereferenceable(9) %0, i1 noundef zeroext %1) unnamed_addr #7 comdat align 2 {
  %3 = alloca ptr, align 8
  %4 = alloca i8, align 1
  store ptr %0, ptr %3, align 8, !tbaa !85
  %5 = zext i1 %1 to i8
  store i8 %5, ptr %4, align 1, !tbaa !87
  %6 = load ptr, ptr %3, align 8
  call void @_ZN7datalog17tr_infrastructureINS_15relation_traitsEE8union_fnC2Ev(ptr noundef nonnull align 8 dereferenceable(8) %6) #3
  store ptr getelementptr inbounds inrange(-16, 24) ({ [5 x ptr] }, ptr @_ZTVN7datalog21bound_relation_plugin10union_fn_iE, i32 0, i32 0, i32 2), ptr %6, align 8, !tbaa !10
  %7 = getelementptr inbounds nuw %"class.datalog::bound_relation_plugin::union_fn_i", ptr %6, i32 0, i32 1
  %8 = load i8, ptr %4, align 1, !tbaa !87, !range !88, !noundef !89
  %9 = trunc i8 %8 to i1
  %10 = zext i1 %9 to i8
  store i8 %10, ptr %7, align 8, !tbaa !90
  ret void
}

; Function Attrs: mustprogress uwtable
define hidden noundef zeroext i1 @_ZN7datalog21bound_relation_plugin20is_interval_relationERKNS_13relation_baseE(ptr noundef nonnull align 8 dereferenceable(28) %0) #4 align 2 {
  %2 = alloca ptr, align 8
  %3 = alloca %class.symbol, align 8
  store ptr %0, ptr %2, align 8, !tbaa !66
  call void @llvm.lifetime.start.p0(i64 8, ptr %3) #3
  call void @_ZN6symbolC1EPKc(ptr noundef nonnull align 8 dereferenceable(8) %3, ptr noundef @.str)
  %4 = load ptr, ptr %2, align 8, !tbaa !66
  %5 = call noundef nonnull align 8 dereferenceable(36) ptr @_ZNK7datalog17tr_infrastructureINS_15relation_traitsEE13base_ancestor10get_pluginEv(ptr noundef nonnull align 8 dereferenceable(28) %4)
  %6 = call noundef nonnull align 8 dereferenceable(8) ptr @_ZNK7datalog17tr_infrastructureINS_15relation_traitsEE13plugin_object8get_nameEv(ptr noundef nonnull align 8 dereferenceable(32) %5)
  %7 = call noundef zeroext i1 @_ZeqRK6symbolS1_(ptr noundef nonnull align 8 dereferenceable(8) %3, ptr noundef nonnull align 8 dereferenceable(8) %6)
  call void @llvm.lifetime.end.p0(i64 8, ptr %3) #3
  ret i1 %7
}

; Function Attrs: mustprogress nounwind uwtable
define linkonce_odr hidden noundef zeroext i1 @_ZNK7datalog17tr_infrastructureINS_15relation_traitsEE13plugin_object10check_kindERKNS_13relation_baseE(ptr noundef nonnull align 8 dereferenceable(32) %0, ptr noundef nonnull align 8 dereferenceable(28) %1) #7 comdat align 2 {
  %3 = alloca ptr, align 8
  %4 = alloca ptr, align 8
  store ptr %0, ptr %3, align 8, !tbaa !24
  store ptr %1, ptr %4, align 8, !tbaa !66
  %5 = load ptr, ptr %3, align 8
  %6 = load ptr, ptr %4, align 8, !tbaa !66
  %7 = call noundef nonnull align 8 dereferenceable(36) ptr @_ZNK7datalog17tr_infrastructureINS_15relation_traitsEE13base_ancestor10get_pluginEv(ptr noundef nonnull align 8 dereferenceable(28) %6)
  %8 = icmp eq ptr %7, %5
  ret i1 %8
}

; Function Attrs: mustprogress uwtable
define hidden noundef ptr @_ZN7datalog21bound_relation_plugin11mk_widen_fnERKNS_13relation_baseES3_PS2_(ptr noundef nonnull align 8 dereferenceable(128) %0, ptr noundef nonnull align 8 dereferenceable(28) %1, ptr noundef nonnull align 8 dereferenceable(28) %2, ptr noundef %3) unnamed_addr #4 align 2 {
  %5 = alloca ptr, align 8
  %6 = alloca ptr, align 8
  %7 = alloca ptr, align 8
  %8 = alloca ptr, align 8
  %9 = alloca ptr, align 8
  store ptr %0, ptr %6, align 8, !tbaa !3
  store ptr %1, ptr %7, align 8, !tbaa !66
  store ptr %2, ptr %8, align 8, !tbaa !66
  store ptr %3, ptr %9, align 8, !tbaa !66
  %10 = load ptr, ptr %6, align 8
  %11 = load ptr, ptr %7, align 8, !tbaa !66
  %12 = call noundef zeroext i1 @_ZNK7datalog17tr_infrastructureINS_15relation_traitsEE13plugin_object10check_kindERKNS_13relation_baseE(ptr noundef nonnull align 8 dereferenceable(32) %10, ptr noundef nonnull align 8 dereferenceable(28) %11)
  br i1 %12, label %13, label %24

13:                                               ; preds = %4
  %14 = load ptr, ptr %8, align 8, !tbaa !66
  %15 = call noundef zeroext i1 @_ZN7datalog21bound_relation_plugin20is_interval_relationERKNS_13relation_baseE(ptr noundef nonnull align 8 dereferenceable(28) %14)
  br i1 %15, label %16, label %24

16:                                               ; preds = %13
  %17 = load ptr, ptr %9, align 8, !tbaa !66
  %18 = icmp ne ptr %17, null
  br i1 %18, label %19, label %22

19:                                               ; preds = %16
  %20 = load ptr, ptr %9, align 8, !tbaa !66
  %21 = call noundef zeroext i1 @_ZNK7datalog17tr_infrastructureINS_15relation_traitsEE13plugin_object10check_kindERKNS_13relation_baseE(ptr noundef nonnull align 8 dereferenceable(32) %10, ptr noundef nonnull align 8 dereferenceable(28) %20)
  br i1 %21, label %22, label %24

22:                                               ; preds = %19, %16
  %23 = call noalias noundef ptr @_ZN6memory8allocateEm(i64 noundef 16)
  call void @_ZN7datalog21bound_relation_plugin10union_fn_iC2Eb(ptr noundef nonnull align 8 dereferenceable(9) %23, i1 noundef zeroext true)
  store ptr %23, ptr %5, align 8
  br label %39

24:                                               ; preds = %19, %13, %4
  %25 = load ptr, ptr %7, align 8, !tbaa !66
  %26 = call noundef zeroext i1 @_ZNK7datalog17tr_infrastructureINS_15relation_traitsEE13plugin_object10check_kindERKNS_13relation_baseE(ptr noundef nonnull align 8 dereferenceable(32) %10, ptr noundef nonnull align 8 dereferenceable(28) %25)
  br i1 %26, label %27, label %38

27:                                               ; preds = %24
  %28 = load ptr, ptr %8, align 8, !tbaa !66
  %29 = call noundef zeroext i1 @_ZNK7datalog17tr_infrastructureINS_15relation_traitsEE13plugin_object10check_kindERKNS_13relation_baseE(ptr noundef nonnull align 8 dereferenceable(32) %10, ptr noundef nonnull align 8 dereferenceable(28) %28)
  br i1 %29, label %30, label %38

30:                                               ; preds = %27
  %31 = load ptr, ptr %9, align 8, !tbaa !66
  %32 = icmp ne ptr %31, null
  br i1 %32, label %33, label %36

33:                                               ; preds = %30
  %34 = load ptr, ptr %9, align 8, !tbaa !66
  %35 = call noundef zeroext i1 @_ZNK7datalog17tr_infrastructureINS_15relation_traitsEE13plugin_object10check_kindERKNS_13relation_baseE(ptr noundef nonnull align 8 dereferenceable(32) %10, ptr noundef nonnull align 8 dereferenceable(28) %34)
  br i1 %35, label %36, label %38

36:                                               ; preds = %33, %30
  %37 = call noalias noundef ptr @_ZN6memory8allocateEm(i64 noundef 16)
  call void @_ZN7datalog21bound_relation_plugin8union_fnC2Eb(ptr noundef nonnull align 8 dereferenceable(9) %37, i1 noundef zeroext true)
  store ptr %37, ptr %5, align 8
  br label %39

38:                                               ; preds = %33, %27, %24
  store ptr null, ptr %5, align 8
  br label %39

39:                                               ; preds = %38, %36, %22
  %40 = load ptr, ptr %5, align 8
  ret ptr %40
}