; Function Attrs: mustprogress uwtable
define hidden noalias noundef ptr @_ZN7datalog21bound_relation_plugin11mk_widen_fnERKNS_13relation_baseES3_PS2_(ptr noundef nonnull readnone align 8 captures(address) dereferenceable(128) %0, ptr noundef nonnull readonly align 8 captures(none) dereferenceable(28) %1, ptr noundef nonnull readonly align 8 captures(none) dereferenceable(28) %2, ptr noundef readonly captures(address_is_null) %3) unnamed_addr #3 align 2 {
  %5 = alloca %class.symbol, align 8
  %6 = getelementptr inbounds nuw i8, ptr %1, i64 8
  %7 = load ptr, ptr %6, align 8, !tbaa !54
  %8 = icmp eq ptr %7, %0
  br i1 %8, label %9, label %._crit_edge

._crit_edge:                                      ; preds = %4
  %.phi.trans.insert = getelementptr inbounds nuw i8, ptr %2, i64 8
  %.pre = load ptr, ptr %.phi.trans.insert, align 8
  br label %21

9:                                                ; preds = %4
  call void @llvm.lifetime.start.p0(i64 8, ptr nonnull %5) #24
  call void @_ZN6symbolC1EPKc(ptr noundef nonnull align 8 dereferenceable(8) %5, ptr noundef nonnull @.str)
  %10 = getelementptr inbounds nuw i8, ptr %2, i64 8
  %11 = load ptr, ptr %10, align 8, !tbaa !54
  %12 = getelementptr inbounds nuw i8, ptr %11, i64 16
  %13 = load ptr, ptr %5, align 8, !tbaa !60
  %14 = load ptr, ptr %12, align 8, !tbaa !60
  %15 = icmp eq ptr %13, %14
  call void @llvm.lifetime.end.p0(i64 8, ptr nonnull %5) #24
  br i1 %15, label %16, label %21

16:                                               ; preds = %9
  %.not = icmp eq ptr %3, null
  br i1 %.not, label %.sink.split, label %17

17:                                               ; preds = %16
  %18 = getelementptr inbounds nuw i8, ptr %3, i64 8
  %19 = load ptr, ptr %18, align 8, !tbaa !54
  %20 = icmp eq ptr %19, %0
  br i1 %20, label %.sink.split, label %21

21:                                               ; preds = %._crit_edge, %17, %9
  %22 = phi ptr [ %.pre, %._crit_edge ], [ %11, %17 ], [ %11, %9 ]
  %23 = load ptr, ptr %6, align 8, !tbaa !54
  %24 = icmp eq ptr %23, %0
  %25 = icmp eq ptr %22, %0
  %or.cond = select i1 %24, i1 %25, i1 false
  br i1 %or.cond, label %26, label %33

26:                                               ; preds = %21
  %.not11 = icmp eq ptr %3, null
  br i1 %.not11, label %.sink.split, label %27

27:                                               ; preds = %26
  %28 = getelementptr inbounds nuw i8, ptr %3, i64 8
  %29 = load ptr, ptr %28, align 8, !tbaa !54
  %30 = icmp eq ptr %29, %0
  br i1 %30, label %.sink.split, label %33

.sink.split:                                      ; preds = %26, %27, %16, %17
  %.sink = phi ptr [ getelementptr inbounds nuw inrange(-16, 24) (i8, ptr @_ZTVN7datalog21bound_relation_plugin10union_fn_iE, i64 16), %17 ], [ getelementptr inbounds nuw inrange(-16, 24) (i8, ptr @_ZTVN7datalog21bound_relation_plugin10union_fn_iE, i64 16), %16 ], [ getelementptr inbounds nuw inrange(-16, 24) (i8, ptr @_ZTVN7datalog21bound_relation_plugin8union_fnE, i64 16), %27 ], [ getelementptr inbounds nuw inrange(-16, 24) (i8, ptr @_ZTVN7datalog21bound_relation_plugin8union_fnE, i64 16), %26 ]
  %31 = call noalias noundef ptr @_ZN6memory8allocateEm(i64 noundef 16)
  store ptr %.sink, ptr %31, align 8, !tbaa !17
  %32 = getelementptr inbounds nuw i8, ptr %31, i64 8
  store i8 1, ptr %32, align 8, !tbaa !63
  br label %33

33:                                               ; preds = %.sink.split, %21, %27
  %.0 = phi ptr [ null, %27 ], [ null, %21 ], [ %31, %.sink.split ]
  ret ptr %.0
}